target datalayout = "e-m:e-p270:32:32-p271:32:32-p272:64:64-i64:64-i128:128-f80:128-n8:16:32:64-S128"
target triple = "x86_64-pc-linux-gnu"

%struct.git_hash_algo = type { ptr, i32, i64, i64, i64, ptr, ptr, ptr, ptr, ptr, ptr, ptr, ptr, ptr }
%struct.object_id = type { [32 x i8], i32 }
%struct.repository = type { ptr, ptr, ptr, ptr, ptr, %struct.strmap, %struct.strmap, %struct.repo_path_cache, ptr, ptr, ptr, ptr, %struct.repo_settings, ptr, ptr, ptr, ptr, ptr, ptr, i32, i32, i32, ptr, ptr, i32, i32, i8 }
%struct.strmap = type { %struct.hashmap, ptr, i8 }
%struct.hashmap = type { ptr, ptr, ptr, i32, i32, i32, i32, i8 }
%struct.repo_path_cache = type { ptr, ptr, ptr, ptr, ptr, ptr, ptr }
%struct.repo_settings = type { i32, i32, i32, i32, i32, i32, i32, i32, i32, i32, i32, i32, ptr, i32, i32, i32, i32, i32, i32, i32, i64, i64, i64 }

@hash_algos = external constant [3 x %struct.git_hash_algo], align 16

; Function Attrs: inlinehint nounwind uwtable
define internal void @oidcpy(ptr noundef %0, ptr noundef %1) #2 {
  %3 = alloca ptr, align 8
  %4 = alloca ptr, align 8
  store ptr %0, ptr %3, align 8, !tbaa !9
  store ptr %1, ptr %4, align 8, !tbaa !9
  %5 = load ptr, ptr %3, align 8, !tbaa !9
  %6 = getelementptr inbounds nuw %struct.object_id, ptr %5, i32 0, i32 0
  %7 = getelementptr inbounds [32 x i8], ptr %6, i64 0, i64 0
  %8 = load ptr, ptr %4, align 8, !tbaa !9
  %9 = getelementptr inbounds nuw %struct.object_id, ptr %8, i32 0, i32 0
  %10 = getelementptr inbounds [32 x i8], ptr %9, i64 0, i64 0
  call void @llvm.memcpy.p0.p0.i64(ptr align 4 %7, ptr align 4 %10, i64 32, i1 false)
  %11 = load ptr, ptr %4, align 8, !tbaa !9
  %12 = getelementptr inbounds nuw %struct.object_id, ptr %11, i32 0, i32 1
  %13 = load i32, ptr %12, align 4, !tbaa !13
  %14 = load ptr, ptr %3, align 8, !tbaa !9
  %15 = getelementptr inbounds nuw %struct.object_id, ptr %14, i32 0, i32 1
  store i32 %13, ptr %15, align 4, !tbaa !13
  ret void
}

; Function Attrs: nounwind uwtable
define dso_local i32 @repo_oid_to_algop(ptr noundef %0, ptr noundef %1, ptr noundef %2, ptr noundef %3) #0 {
  %5 = alloca i32, align 4
  %6 = alloca ptr, align 8
  %7 = alloca ptr, align 8
  %8 = alloca ptr, align 8
  %9 = alloca ptr, align 8
  %10 = alloca ptr, align 8
  %11 = alloca i32, align 4
  store ptr %0, ptr %6, align 8, !tbaa !4
  store ptr %1, ptr %7, align 8, !tbaa !9
  store ptr %2, ptr %8, align 8, !tbaa !11
  store ptr %3, ptr %9, align 8, !tbaa !9
  call void @llvm.lifetime.start.p0(i64 8, ptr %10) #9
  %12 = load ptr, ptr %7, align 8, !tbaa !9
  %13 = getelementptr inbounds nuw %struct.object_id, ptr %12, i32 0, i32 1
  %14 = load i32, ptr %13, align 4, !tbaa !13
  %15 = icmp ne i32 %14, 0
  br i1 %15, label %16, label %22

16:                                               ; preds = %4
  %17 = load ptr, ptr %7, align 8, !tbaa !9
  %18 = getelementptr inbounds nuw %struct.object_id, ptr %17, i32 0, i32 1
  %19 = load i32, ptr %18, align 4, !tbaa !13
  %20 = sext i32 %19 to i64
  %21 = getelementptr inbounds [3 x %struct.git_hash_algo], ptr @hash_algos, i64 0, i64 %20
  br label %26

22:                                               ; preds = %4
  %23 = load ptr, ptr %6, align 8, !tbaa !4
  %24 = getelementptr inbounds nuw %struct.repository, ptr %23, i32 0, i32 17
  %25 = load ptr, ptr %24, align 8, !tbaa !16
  br label %26

26:                                               ; preds = %22, %16
  %27 = phi ptr [ %21, %16 ], [ %25, %22 ]
  store ptr %27, ptr %10, align 8, !tbaa !11
  %28 = load ptr, ptr %10, align 8, !tbaa !11
  %29 = load ptr, ptr %8, align 8, !tbaa !11
  %30 = icmp eq ptr %28, %29
  br i1 %30, label %31, label %39

31:                                               ; preds = %26
  %32 = load ptr, ptr %7, align 8, !tbaa !9
  %33 = load ptr, ptr %9, align 8, !tbaa !9
  %34 = icmp ne ptr %32, %33
  br i1 %34, label %35, label %38

35:                                               ; preds = %31
  %36 = load ptr, ptr %9, align 8, !tbaa !9
  %37 = load ptr, ptr %7, align 8, !tbaa !9
  call void @oidcpy(ptr noundef %36, ptr noundef %37)
  br label %38

38:                                               ; preds = %35, %31
  store i32 0, ptr %5, align 4
  store i32 1, ptr %11, align 4
  br label %58

39:                                               ; preds = %26
  %40 = load ptr, ptr %6, align 8, !tbaa !4
  %41 = load ptr, ptr %7, align 8, !tbaa !9
  %42 = load ptr, ptr %8, align 8, !tbaa !11
  %43 = load ptr, ptr %9, align 8, !tbaa !9
  %44 = call i32 @repo_loose_object_map_oid(ptr noundef %40, ptr noundef %41, ptr noundef %42, ptr noundef %43)
  %45 = icmp ne i32 %44, 0
  br i1 %45, label %46, label %57

46:                                               ; preds = %39
  %47 = load ptr, ptr %6, align 8, !tbaa !4
  %48 = call i32 @repo_read_loose_object_map(ptr noundef %47)
  %49 = load ptr, ptr %6, align 8, !tbaa !4
  %50 = load ptr, ptr %7, align 8, !tbaa !9
  %51 = load ptr, ptr %8, align 8, !tbaa !11
  %52 = load ptr, ptr %9, align 8, !tbaa !9
  %53 = call i32 @repo_loose_object_map_oid(ptr noundef %49, ptr noundef %50, ptr noundef %51, ptr noundef %52)
  %54 = icmp ne i32 %53, 0
  br i1 %54, label %55, label %56

55:                                               ; preds = %46
  store i32 -1, ptr %5, align 4
  store i32 1, ptr %11, align 4
  br label %58

56:                                               ; preds = %46
  br label %57

57:                                               ; preds = %56, %39
  store i32 0, ptr %5, align 4
  store i32 1, ptr %11, align 4
  br label %58

58:                                               ; preds = %57, %55, %38
  call void @llvm.lifetime.end.p0(i64 8, ptr %10) #9
  %59 = load i32, ptr %5, align 4
  ret i32 %59
}