; Function Attrs: nounwind uwtable
define dso_local range(i32 -1, 1) i32 @repo_oid_to_algop(ptr noundef %0, ptr noundef %1, ptr noundef %2, ptr noundef %3) local_unnamed_addr #0 {
  %5 = getelementptr inbounds nuw i8, ptr %1, i64 32
  %6 = load i32, ptr %5, align 4, !tbaa !4
  %.not = icmp eq i32 %6, 0
  br i1 %.not, label %10, label %7

7:                                                ; preds = %4
  %8 = sext i32 %6 to i64
  %9 = getelementptr inbounds [3 x %struct.git_hash_algo], ptr @hash_algos, i64 0, i64 %8
  br label %13

10:                                               ; preds = %4
  %11 = getelementptr inbounds nuw i8, ptr %0, i64 400
  %12 = load ptr, ptr %11, align 8, !tbaa !9
  br label %13

13:                                               ; preds = %10, %7
  %14 = phi ptr [ %9, %7 ], [ %12, %10 ]
  %15 = icmp eq ptr %14, %2
  br i1 %15, label %16, label %20

16:                                               ; preds = %13
  %.not24 = icmp eq ptr %1, %3
  br i1 %.not24, label %26, label %17

17:                                               ; preds = %16
  tail call void @llvm.memcpy.p0.p0.i64(ptr noundef nonnull align 4 dereferenceable(32) %3, ptr noundef nonnull readonly align 4 dereferenceable(32) %1, i64 32, i1 false)
  %18 = load i32, ptr %5, align 4, !tbaa !4
  %19 = getelementptr inbounds nuw i8, ptr %3, i64 32
  store i32 %18, ptr %19, align 4, !tbaa !4
  br label %26

20:                                               ; preds = %13
  %21 = tail call i32 @repo_loose_object_map_oid(ptr noundef %0, ptr noundef nonnull %1, ptr noundef %2, ptr noundef %3) #10
  %.not22 = icmp eq i32 %21, 0
  br i1 %.not22, label %25, label %22

22:                                               ; preds = %20
  %23 = tail call i32 @repo_read_loose_object_map(ptr noundef %0) #10
  %24 = tail call i32 @repo_loose_object_map_oid(ptr noundef %0, ptr noundef nonnull %1, ptr noundef %2, ptr noundef %3) #10
  %.not23 = icmp eq i32 %24, 0
  br i1 %.not23, label %25, label %26

25:                                               ; preds = %22, %20
  br label %26

26:                                               ; preds = %22, %16, %17, %25
  %.0 = phi i32 [ 0, %25 ], [ 0, %17 ], [ 0, %16 ], [ -1, %22 ]
  ret i32 %.0
}